target datalayout = "e-m:e-p270:32:32-p271:32:32-p272:64:64-i64:64-i128:128-f80:128-n8:16:32:64-S128"
target triple = "x86_64-pc-linux-gnu"

; Function Attrs: inlinehint nounwind sspstrong willreturn memory(none) uwtable
define internal zeroext i1 @RB_UNDEF_P(i64 noundef %0) #4 {
  %2 = alloca i64, align 8
  store i64 %0, ptr %2, align 8, !tbaa !7
  %3 = load i64, ptr %2, align 8, !tbaa !7
  %4 = icmp eq i64 %3, 36
  ret i1 %4
}

; Function Attrs: nounwind sspstrong uwtable
define internal zeroext i1 @wmap_live_p(i64 noundef %0) #0 {
  %2 = alloca i64, align 8
  store i64 %0, ptr %2, align 8, !tbaa !7
  %3 = load i64, ptr %2, align 8, !tbaa !7
  %4 = call zeroext i1 @RB_UNDEF_P(i64 noundef %3) #16
  %5 = xor i1 %4, true
  ret i1 %5
}

; Function Attrs: inlinehint nounwind sspstrong uwtable
define internal void @ruby_sized_xfree_inlined(ptr noundef %0, i64 noundef %1) #3 {
  %3 = alloca ptr, align 8
  %4 = alloca i64, align 8
  store ptr %0, ptr %3, align 8, !tbaa !33
  store i64 %1, ptr %4, align 8, !tbaa !7
  %5 = load ptr, ptr %3, align 8, !tbaa !33
  call void @ruby_xfree(ptr noundef %5)
  ret void
}

; Function Attrs: nounwind sspstrong uwtable
define internal i32 @wkmap_compact_table_i(i64 noundef %0, i64 noundef %1, i64 noundef %2, i32 noundef %3) #0 {
  %5 = alloca i32, align 4
  %6 = alloca i64, align 8
  %7 = alloca i64, align 8
  %8 = alloca i64, align 8
  %9 = alloca i32, align 4
  %10 = alloca ptr, align 8
  %11 = alloca ptr, align 8
  %12 = alloca i32, align 4
  store i64 %0, ptr %6, align 8, !tbaa !7
  store i64 %1, ptr %7, align 8, !tbaa !7
  store i64 %2, ptr %8, align 8, !tbaa !7
  store i32 %3, ptr %9, align 4, !tbaa !46
  call void @llvm.lifetime.start.p0(i64 8, ptr %10) #15
  %13 = load i64, ptr %8, align 8, !tbaa !7
  %14 = inttoptr i64 %13 to ptr
  store ptr %14, ptr %10, align 8, !tbaa !60
  %15 = load ptr, ptr %10, align 8, !tbaa !60
  %16 = load ptr, ptr %15, align 8, !tbaa !48
  call void @ruby_sized_xfree_inlined(ptr noundef %16, i64 noundef 8)
  %17 = load ptr, ptr %10, align 8, !tbaa !60
  store ptr null, ptr %17, align 8, !tbaa !48
  call void @llvm.lifetime.start.p0(i64 8, ptr %11) #15
  %18 = load i64, ptr %6, align 8, !tbaa !7
  %19 = inttoptr i64 %18 to ptr
  store ptr %19, ptr %11, align 8, !tbaa !48
  %20 = load ptr, ptr %11, align 8, !tbaa !48
  %21 = load i64, ptr %20, align 8, !tbaa !7
  %22 = call zeroext i1 @wmap_live_p(i64 noundef %21)
  br i1 %22, label %23, label %37

23:                                               ; preds = %4
  %24 = load ptr, ptr %11, align 8, !tbaa !48
  %25 = load i64, ptr %24, align 8, !tbaa !7
  %26 = load ptr, ptr %11, align 8, !tbaa !48
  %27 = load i64, ptr %26, align 8, !tbaa !7
  %28 = call i64 @rb_gc_location(i64 noundef %27)
  %29 = icmp ne i64 %25, %28
  br i1 %29, label %35, label %30

30:                                               ; preds = %23
  %31 = load i64, ptr %7, align 8, !tbaa !7
  %32 = load i64, ptr %7, align 8, !tbaa !7
  %33 = call i64 @rb_gc_location(i64 noundef %32)
  %34 = icmp ne i64 %31, %33
  br i1 %34, label %35, label %36

35:                                               ; preds = %30, %23
  store i32 4, ptr %5, align 4
  store i32 1, ptr %12, align 4
  br label %40

36:                                               ; preds = %30
  store i32 0, ptr %5, align 4
  store i32 1, ptr %12, align 4
  br label %40

37:                                               ; preds = %4
  %38 = load ptr, ptr %11, align 8, !tbaa !48
  %39 = load ptr, ptr %10, align 8, !tbaa !60
  store ptr %38, ptr %39, align 8, !tbaa !48
  store i32 2, ptr %5, align 4
  store i32 1, ptr %12, align 4
  br label %40

40:                                               ; preds = %37, %36, %35
  call void @llvm.lifetime.end.p0(i64 8, ptr %11) #15
  call void @llvm.lifetime.end.p0(i64 8, ptr %10) #15
  %41 = load i32, ptr %5, align 4
  ret i32 %41
}