; Function Attrs: nounwind sspstrong uwtable
define internal range(i32 0, 5) i32 @wkmap_compact_table_i(i64 noundef %0, i64 noundef %1, i64 noundef %2, i32 %3) #0 {
  %5 = inttoptr i64 %2 to ptr
  %6 = load ptr, ptr %5, align 8, !tbaa !41
  tail call void @ruby_xfree(ptr noundef %6) #10
  store ptr null, ptr %5, align 8, !tbaa !41
  %7 = inttoptr i64 %0 to ptr
  %8 = load i64, ptr %7, align 8, !tbaa !7
  %.not12 = icmp eq i64 %8, 36
  br i1 %.not12, label %13, label %9

9:                                                ; preds = %4
  %10 = tail call i64 @rb_gc_location(i64 noundef %8) #10
  %.not = icmp eq i64 %8, %10
  br i1 %.not, label %11, label %14

11:                                               ; preds = %9
  %12 = tail call i64 @rb_gc_location(i64 noundef %1) #10
  %.not11 = icmp eq i64 %1, %12
  %spec.select = select i1 %.not11, i32 0, i32 4
  br label %14

13:                                               ; preds = %4
  store ptr %7, ptr %5, align 8, !tbaa !41
  br label %14

14:                                               ; preds = %11, %9, %13
  %.0 = phi i32 [ 2, %13 ], [ 4, %9 ], [ %spec.select, %11 ]
  ret i32 %.0
}